; Function Attrs: mustprogress nounwind uwtable
define hidden void @_ZN12opencv_caffe14EmbedParameterD2Ev(ptr noundef nonnull align 8 dereferenceable(56) %0) unnamed_addr #6 align 2 personality ptr @__gxx_personality_v0 {
  %2 = getelementptr inbounds nuw i8, ptr %0, i64 8
  %3 = load i64, ptr %2, align 8, !tbaa !8
  %4 = and i64 %3, 1
  %.not.i = icmp eq i64 %4, 0
  %5 = and i64 %3, -4
  %6 = inttoptr i64 %5 to ptr
  br i1 %.not.i, label %_ZNK6google8protobuf11MessageLite21GetArenaForAllocationEv.exit, label %7, !prof !20

7:                                                ; preds = %1
  %8 = load ptr, ptr %6, align 8, !tbaa !21
  br label %_ZNK6google8protobuf11MessageLite21GetArenaForAllocationEv.exit

_ZNK6google8protobuf11MessageLite21GetArenaForAllocationEv.exit: ; preds = %7, %1
  %.0.i.i = phi ptr [ %8, %7 ], [ %6, %1 ]
  %.not = icmp eq ptr %.0.i.i, null
  br i1 %.not, label %9, label %_ZN6google8protobuf8internal16InternalMetadata6DeleteINS0_15UnknownFieldSetEEEvv.exit

9:                                                ; preds = %_ZNK6google8protobuf11MessageLite21GetArenaForAllocationEv.exit
  %.not.i1 = icmp eq ptr %0, @_ZN12opencv_caffe33_EmbedParameter_default_instance_E
  br i1 %.not.i1, label %_ZN12opencv_caffe14EmbedParameter10SharedDtorEv.exit, label %10

10:                                               ; preds = %9
  %11 = getelementptr inbounds nuw i8, ptr %0, i64 24
  %12 = load ptr, ptr %11, align 8, !tbaa !611
  %13 = icmp eq ptr %12, null
  br i1 %13, label %15, label %14

14:                                               ; preds = %10
  tail call void @_ZN12opencv_caffe15FillerParameterD2Ev(ptr noundef nonnull align 8 dereferenceable(64) %12) #25
  tail call void @_ZdlPv(ptr noundef nonnull %12) #26
  br label %15

15:                                               ; preds = %14, %10
  %16 = getelementptr inbounds nuw i8, ptr %0, i64 32
  %17 = load ptr, ptr %16, align 8, !tbaa !613
  %18 = icmp eq ptr %17, null
  br i1 %18, label %_ZN12opencv_caffe14EmbedParameter10SharedDtorEv.exit, label %19

19:                                               ; preds = %15
  tail call void @_ZN12opencv_caffe15FillerParameterD2Ev(ptr noundef nonnull align 8 dereferenceable(64) %17) #25
  tail call void @_ZdlPv(ptr noundef nonnull %17) #26
  br label %_ZN12opencv_caffe14EmbedParameter10SharedDtorEv.exit

_ZN12opencv_caffe14EmbedParameter10SharedDtorEv.exit: ; preds = %19, %15, %9
  %20 = load i64, ptr %2, align 8, !tbaa !8
  %21 = and i64 %20, 1
  %.not.i2 = icmp eq i64 %21, 0
  br i1 %.not.i2, label %_ZN6google8protobuf8internal16InternalMetadata6DeleteINS0_15UnknownFieldSetEEEvv.exit, label %22

22:                                               ; preds = %_ZN12opencv_caffe14EmbedParameter10SharedDtorEv.exit
  invoke void @_ZN6google8protobuf8internal16InternalMetadata21DeleteOutOfLineHelperINS0_15UnknownFieldSetEEEvv(ptr noundef nonnull align 8 dereferenceable(8) %2)
          to label %._ZN6google8protobuf8internal16InternalMetadata6DeleteINS0_15UnknownFieldSetEEEvv.exit_crit_edge unwind label %33

._ZN6google8protobuf8internal16InternalMetadata6DeleteINS0_15UnknownFieldSetEEEvv.exit_crit_edge: ; preds = %22
  %.pre = load i64, ptr %2, align 8, !tbaa !8
  br label %_ZN6google8protobuf8internal16InternalMetadata6DeleteINS0_15UnknownFieldSetEEEvv.exit

_ZN6google8protobuf8internal16InternalMetadata6DeleteINS0_15UnknownFieldSetEEEvv.exit: ; preds = %._ZN6google8protobuf8internal16InternalMetadata6DeleteINS0_15UnknownFieldSetEEEvv.exit_crit_edge, %_ZN12opencv_caffe14EmbedParameter10SharedDtorEv.exit, %_ZNK6google8protobuf11MessageLite21GetArenaForAllocationEv.exit
  %23 = phi i64 [ %.pre, %._ZN6google8protobuf8internal16InternalMetadata6DeleteINS0_15UnknownFieldSetEEEvv.exit_crit_edge ], [ %20, %_ZN12opencv_caffe14EmbedParameter10SharedDtorEv.exit ], [ %3, %_ZNK6google8protobuf11MessageLite21GetArenaForAllocationEv.exit ]
  store ptr getelementptr inbounds nuw inrange(-16, 104) (i8, ptr @_ZTVN6google8protobuf11MessageLiteE, i64 16), ptr %0, align 8, !tbaa !11
  %24 = and i64 %23, 2
  %.not.i.i = icmp eq i64 %24, 0
  br i1 %.not.i.i, label %_ZN6google8protobuf11MessageLiteD2Ev.exit, label %25

25:                                               ; preds = %_ZN6google8protobuf8internal16InternalMetadata6DeleteINS0_15UnknownFieldSetEEEvv.exit
  %26 = and i64 %23, 1
  %.not1.i.i = icmp eq i64 %26, 0
  %27 = and i64 %23, -4
  %28 = inttoptr i64 %27 to ptr
  br i1 %.not1.i.i, label %_ZNK6google8protobuf8internal16InternalMetadata5arenaEv.exit.i.i, label %29, !prof !20

29:                                               ; preds = %25
  %30 = load ptr, ptr %28, align 8, !tbaa !21
  br label %_ZNK6google8protobuf8internal16InternalMetadata5arenaEv.exit.i.i

_ZNK6google8protobuf8internal16InternalMetadata5arenaEv.exit.i.i: ; preds = %29, %25
  %.0.i.i.i = phi ptr [ %30, %29 ], [ %28, %25 ]
  %31 = icmp eq ptr %.0.i.i.i, null
  br i1 %31, label %_ZN6google8protobuf11MessageLiteD2Ev.exit, label %32

32:                                               ; preds = %_ZNK6google8protobuf8internal16InternalMetadata5arenaEv.exit.i.i
  tail call void @_ZN6google8protobuf8internal15ThreadSafeArenaD1Ev(ptr noundef nonnull align 8 dereferenceable(32) %.0.i.i.i) #25
  tail call void @_ZdlPv(ptr noundef nonnull %.0.i.i.i) #26
  br label %_ZN6google8protobuf11MessageLiteD2Ev.exit

_ZN6google8protobuf11MessageLiteD2Ev.exit:        ; preds = %_ZN6google8protobuf8internal16InternalMetadata6DeleteINS0_15UnknownFieldSetEEEvv.exit, %_ZNK6google8protobuf8internal16InternalMetadata5arenaEv.exit.i.i, %32
  ret void

33:                                               ; preds = %22
  %34 = landingpad { ptr, i32 }
          catch ptr null
  %35 = extractvalue { ptr, i32 } %34, 0
  tail call void @__clang_call_terminate(ptr %35) #27
  unreachable
}